; Function Attrs: mustprogress nofree nounwind willreturn memory(read, inaccessiblemem: none) uwtable
define dso_local noundef zeroext i1 @_ZNK4Luau13InternalErroreqERKS0_(ptr noundef nonnull readonly align 8 captures(none) dereferenceable(32) %0, ptr noundef nonnull readonly align 8 captures(none) dereferenceable(32) %1) local_unnamed_addr #7 align 2 {
  %3 = getelementptr inbounds nuw i8, ptr %0, i64 8
  %4 = load i64, ptr %3, align 8, !tbaa !23
  %5 = getelementptr inbounds nuw i8, ptr %1, i64 8
  %6 = load i64, ptr %5, align 8, !tbaa !23
  %7 = icmp eq i64 %4, %6
  br i1 %7, label %8, label %_ZSteqIcEN9__gnu_cxx11__enable_ifIXsr9__is_charIT_EE7__valueEbE6__typeERKNSt7__cxx1112basic_stringIS2_St11char_traitsIS2_ESaIS2_EEESC_.exit

8:                                                ; preds = %2
  %9 = icmp eq i64 %4, 0
  br i1 %9, label %_ZSteqIcEN9__gnu_cxx11__enable_ifIXsr9__is_charIT_EE7__valueEbE6__typeERKNSt7__cxx1112basic_stringIS2_St11char_traitsIS2_ESaIS2_EEESC_.exit, label %10

10:                                               ; preds = %8
  %11 = load ptr, ptr %1, align 8, !tbaa !19
  %12 = load ptr, ptr %0, align 8, !tbaa !19
  %bcmp.i = tail call i32 @bcmp(ptr %12, ptr %11, i64 %4)
  %13 = icmp eq i32 %bcmp.i, 0
  br label %_ZSteqIcEN9__gnu_cxx11__enable_ifIXsr9__is_charIT_EE7__valueEbE6__typeERKNSt7__cxx1112basic_stringIS2_St11char_traitsIS2_ESaIS2_EEESC_.exit

_ZSteqIcEN9__gnu_cxx11__enable_ifIXsr9__is_charIT_EE7__valueEbE6__typeERKNSt7__cxx1112basic_stringIS2_St11char_traitsIS2_ESaIS2_EEESC_.exit: ; preds = %2, %8, %10
  %14 = phi i1 [ false, %2 ], [ %13, %10 ], [ true, %8 ]
  ret i1 %14
}